target datalayout = "e-m:e-p270:32:32-p271:32:32-p272:64:64-i64:64-i128:128-f80:128-n8:16:32:64-S128"
target triple = "x86_64-pc-linux-gnu"

%struct.expert_field = type { i32, i32 }

@ett_pcep_obj_branch_node_capability = internal global i32 0, align 4
@ei_pcep_subobject_bad_length = internal global %struct.expert_field zeroinitializer, align 4
@ei_pcep_non_defined_subobject = internal global %struct.expert_field zeroinitializer, align 4
@.str.1154 = private unnamed_addr constant [27 x i8] c"Non defined subobject (%d)\00", align 1
@.str.1400 = private unnamed_addr constant [69 x i8] c"Bad Branch Node Capability Object: subobject goes past end of object\00", align 1
@.str.1401 = private unnamed_addr constant [59 x i8] c"Bad Branch Node Capability Object: subobject length %u < 2\00", align 1
@.str.1402 = private unnamed_addr constant [77 x i8] c"Bad Branch Node Capability Object: subobject length %u > remaining length %u\00", align 1

; Function Attrs: null_pointer_is_valid sspstrong uwtable
define internal void @dissect_pcep_obj_branch_node_capability(ptr noundef %0, ptr noundef %1, ptr noundef %2, i32 noundef %3, i32 noundef %4, i32 noundef %5, i32 noundef %6) #0 {
  %8 = alloca ptr, align 8
  %9 = alloca ptr, align 8
  %10 = alloca ptr, align 8
  %11 = alloca i32, align 4
  %12 = alloca i32, align 4
  %13 = alloca i32, align 4
  %14 = alloca i32, align 4
  %15 = alloca i8, align 1
  %16 = alloca i8, align 1
  %17 = alloca i32, align 4
  %18 = alloca i32, align 4
  store ptr %0, ptr %8, align 8
  store ptr %1, ptr %9, align 8
  store ptr %2, ptr %10, align 8
  store i32 %3, ptr %11, align 4
  store i32 %4, ptr %12, align 4
  store i32 %5, ptr %13, align 4
  store i32 %6, ptr %14, align 4
  call void @llvm.lifetime.start.p0(i64 1, ptr %15) #4
  call void @llvm.lifetime.start.p0(i64 1, ptr %16) #4
  call void @llvm.lifetime.start.p0(i64 4, ptr %17) #4
  call void @llvm.lifetime.start.p0(i64 4, ptr %18) #4
  %19 = load i32, ptr %12, align 4
  %20 = sub i32 %19, 4
  store i32 %20, ptr %18, align 4
  br label %21

21:                                               ; preds = %96, %7
  %22 = load i32, ptr %18, align 4
  %23 = icmp ne i32 %22, 0
  br i1 %23, label %24, label %105

24:                                               ; preds = %21
  %25 = load i32, ptr %18, align 4
  %26 = icmp ult i32 %25, 2
  br i1 %26, label %27, label %31

27:                                               ; preds = %24
  %28 = load ptr, ptr %9, align 8
  %29 = load ptr, ptr %8, align 8
  %30 = call ptr (ptr, ptr, ptr, ptr, ...) @expert_add_info_format(ptr noundef %28, ptr noundef %29, ptr noundef @ei_pcep_subobject_bad_length, ptr noundef @.str.1400)
  br label %105

31:                                               ; preds = %24
  %32 = load ptr, ptr %10, align 8
  %33 = load i32, ptr %11, align 4
  %34 = call zeroext i8 @tvb_get_uint8(ptr noundef %32, i32 noundef %33)
  store i8 %34, ptr %15, align 1
  %35 = load ptr, ptr %10, align 8
  %36 = load i32, ptr %11, align 4
  %37 = add i32 %36, 1
  %38 = call zeroext i8 @tvb_get_uint8(ptr noundef %35, i32 noundef %37)
  store i8 %38, ptr %16, align 1
  %39 = load i8, ptr %16, align 1
  %40 = zext i8 %39 to i32
  %41 = icmp slt i32 %40, 2
  br i1 %41, label %42, label %48

42:                                               ; preds = %31
  %43 = load ptr, ptr %9, align 8
  %44 = load ptr, ptr %8, align 8
  %45 = load i8, ptr %16, align 1
  %46 = zext i8 %45 to i32
  %47 = call ptr (ptr, ptr, ptr, ptr, ...) @expert_add_info_format(ptr noundef %43, ptr noundef %44, ptr noundef @ei_pcep_subobject_bad_length, ptr noundef @.str.1401, i32 noundef %46)
  br label %105

48:                                               ; preds = %31
  %49 = load i8, ptr %15, align 1
  %50 = zext i8 %49 to i32
  %51 = and i32 %50, 127
  store i32 %51, ptr %17, align 4
  %52 = load i32, ptr %18, align 4
  %53 = load i8, ptr %16, align 1
  %54 = zext i8 %53 to i32
  %55 = icmp ult i32 %52, %54
  br i1 %55, label %56, label %67

56:                                               ; preds = %48
  %57 = load ptr, ptr %8, align 8
  %58 = load ptr, ptr %9, align 8
  %59 = load ptr, ptr %10, align 8
  %60 = load i32, ptr %11, align 4
  %61 = load i8, ptr %16, align 1
  %62 = zext i8 %61 to i32
  %63 = load i8, ptr %16, align 1
  %64 = zext i8 %63 to i32
  %65 = load i32, ptr %18, align 4
  %66 = call ptr (ptr, ptr, ptr, ptr, i32, i32, ptr, ...) @proto_tree_add_expert_format(ptr noundef %57, ptr noundef %58, ptr noundef @ei_pcep_subobject_bad_length, ptr noundef %59, i32 noundef %60, i32 noundef %62, ptr noundef @.str.1402, i32 noundef %64, i32 noundef %65)
  br label %105

67:                                               ; preds = %48
  %68 = load i32, ptr %17, align 4
  switch i32 %68, label %87 [
    i32 1, label %69
    i32 2, label %78
  ]

69:                                               ; preds = %67
  %70 = load ptr, ptr %8, align 8
  %71 = load ptr, ptr %9, align 8
  %72 = load ptr, ptr %10, align 8
  %73 = load i32, ptr %11, align 4
  %74 = load i32, ptr %13, align 4
  %75 = load i32, ptr @ett_pcep_obj_branch_node_capability, align 4
  %76 = load i8, ptr %16, align 1
  %77 = zext i8 %76 to i32
  call void @dissect_subobj_ipv4(ptr noundef %70, ptr noundef %71, ptr noundef %72, i32 noundef %73, i32 noundef %74, i32 noundef %75, i32 noundef %77)
  br label %96

78:                                               ; preds = %67
  %79 = load ptr, ptr %8, align 8
  %80 = load ptr, ptr %9, align 8
  %81 = load ptr, ptr %10, align 8
  %82 = load i32, ptr %11, align 4
  %83 = load i32, ptr %13, align 4
  %84 = load i32, ptr @ett_pcep_obj_branch_node_capability, align 4
  %85 = load i8, ptr %16, align 1
  %86 = zext i8 %85 to i32
  call void @dissect_subobj_ipv6(ptr noundef %79, ptr noundef %80, ptr noundef %81, i32 noundef %82, i32 noundef %83, i32 noundef %84, i32 noundef %86)
  br label %96

87:                                               ; preds = %67
  %88 = load ptr, ptr %8, align 8
  %89 = load ptr, ptr %9, align 8
  %90 = load ptr, ptr %10, align 8
  %91 = load i32, ptr %11, align 4
  %92 = load i8, ptr %16, align 1
  %93 = zext i8 %92 to i32
  %94 = load i32, ptr %17, align 4
  %95 = call ptr (ptr, ptr, ptr, ptr, i32, i32, ptr, ...) @proto_tree_add_expert_format(ptr noundef %88, ptr noundef %89, ptr noundef @ei_pcep_non_defined_subobject, ptr noundef %90, i32 noundef %91, i32 noundef %93, ptr noundef @.str.1154, i32 noundef %94)
  br label %96

96:                                               ; preds = %87, %78, %69
  %97 = load i8, ptr %16, align 1
  %98 = zext i8 %97 to i32
  %99 = load i32, ptr %11, align 4
  %100 = add i32 %99, %98
  store i32 %100, ptr %11, align 4
  %101 = load i8, ptr %16, align 1
  %102 = zext i8 %101 to i32
  %103 = load i32, ptr %18, align 4
  %104 = sub i32 %103, %102
  store i32 %104, ptr %18, align 4
  br label %21, !llvm.loop !17

105:                                              ; preds = %56, %42, %27, %21
  call void @llvm.lifetime.end.p0(i64 4, ptr %18) #4
  call void @llvm.lifetime.end.p0(i64 4, ptr %17) #4
  call void @llvm.lifetime.end.p0(i64 1, ptr %16) #4
  call void @llvm.lifetime.end.p0(i64 1, ptr %15) #4
  ret void
}