; Function Attrs: null_pointer_is_valid sspstrong uwtable
define internal void @dissect_pcep_obj_branch_node_capability(ptr noundef %0, ptr noundef %1, ptr noundef %2, i32 noundef %3, i32 noundef %4, i32 noundef %5, i32 %6) #0 {
  %8 = add i32 %4, -4
  br label %9

9:                                                ; preds = %33, %7
  %.045 = phi i32 [ %3, %7 ], [ %34, %33 ]
  %.0 = phi i32 [ %8, %7 ], [ %35, %33 ]
  switch i32 %.0, label %12 [
    i32 0, label %.loopexit
    i32 1, label %10
  ]

10:                                               ; preds = %9
  %11 = tail call ptr (ptr, ptr, ptr, ptr, ...) @expert_add_info_format(ptr noundef %1, ptr noundef %0, ptr noundef nonnull @ei_pcep_subobject_bad_length, ptr noundef nonnull @.str.1400)
  br label %.loopexit

12:                                               ; preds = %9
  %13 = tail call zeroext i8 @tvb_get_uint8(ptr noundef %2, i32 noundef %.045)
  %14 = add i32 %.045, 1
  %15 = tail call zeroext i8 @tvb_get_uint8(ptr noundef %2, i32 noundef %14)
  %16 = zext i8 %15 to i32
  %17 = icmp ult i8 %15, 2
  br i1 %17, label %18, label %20

18:                                               ; preds = %12
  %19 = tail call ptr (ptr, ptr, ptr, ptr, ...) @expert_add_info_format(ptr noundef %1, ptr noundef %0, ptr noundef nonnull @ei_pcep_subobject_bad_length, ptr noundef nonnull @.str.1401, i32 noundef %16)
  br label %.loopexit

20:                                               ; preds = %12
  %21 = and i8 %13, 127
  %22 = zext nneg i8 %21 to i32
  %23 = icmp ult i32 %.0, %16
  br i1 %23, label %24, label %26

24:                                               ; preds = %20
  %25 = tail call ptr (ptr, ptr, ptr, ptr, i32, i32, ptr, ...) @proto_tree_add_expert_format(ptr noundef %0, ptr noundef %1, ptr noundef nonnull @ei_pcep_subobject_bad_length, ptr noundef %2, i32 noundef %.045, i32 noundef %16, ptr noundef nonnull @.str.1402, i32 noundef %16, i32 noundef %.0)
  br label %.loopexit

26:                                               ; preds = %20
  switch i8 %21, label %31 [
    i8 1, label %27
    i8 2, label %29
  ]

27:                                               ; preds = %26
  %28 = load i32, ptr @ett_pcep_obj_branch_node_capability, align 4
  tail call fastcc void @dissect_subobj_ipv4(ptr noundef %0, ptr noundef %1, ptr noundef %2, i32 noundef %.045, i32 noundef %5, i32 noundef %28, i32 noundef %16)
  br label %33

29:                                               ; preds = %26
  %30 = load i32, ptr @ett_pcep_obj_branch_node_capability, align 4
  tail call fastcc void @dissect_subobj_ipv6(ptr noundef %0, ptr noundef %1, ptr noundef %2, i32 noundef %.045, i32 noundef %5, i32 noundef %30, i32 noundef %16)
  br label %33

31:                                               ; preds = %26
  %32 = tail call ptr (ptr, ptr, ptr, ptr, i32, i32, ptr, ...) @proto_tree_add_expert_format(ptr noundef %0, ptr noundef %1, ptr noundef nonnull @ei_pcep_non_defined_subobject, ptr noundef %2, i32 noundef %.045, i32 noundef %16, ptr noundef nonnull @.str.1154, i32 noundef %22)
  br label %33

33:                                               ; preds = %31, %29, %27
  %34 = add i32 %.045, %16
  %35 = sub i32 %.0, %16
  br label %9, !llvm.loop !18

.loopexit:                                        ; preds = %9, %24, %18, %10
  ret void
}